; Function Attrs: mustprogress nounwind uwtable
define hidden void @_ZNK4llvh22PrettyStackTraceString5printERNS_11raw_ostreamE(ptr nocapture noundef nonnull readonly align 8 dereferenceable(24) %this, ptr noundef nonnull align 8 dereferenceable(36) %OS) unnamed_addr #4 align 2 {
entry:
  %Str = getelementptr inbounds i8, ptr %this, i64 16
  %0 = load ptr, ptr %Str, align 8
  %tobool.i.not.i = icmp eq ptr %0, null
  br i1 %tobool.i.not.i, label %_ZN4llvh11raw_ostreamlsEPKc.exit, label %cond.true.i.split.i

cond.true.i.split.i:                              ; preds = %entry
  %call.i.i = tail call i64 @strlen(ptr noundef nonnull dereferenceable(1) %0) #14
  %OutBufEnd.i5.i = getelementptr inbounds i8, ptr %OS, i64 16
  %1 = load ptr, ptr %OutBufEnd.i5.i, align 8
  %OutBufCur.i6.i = getelementptr inbounds i8, ptr %OS, i64 24
  %2 = load ptr, ptr %OutBufCur.i6.i, align 8
  %sub.ptr.lhs.cast.i7.i = ptrtoint ptr %1 to i64
  %sub.ptr.rhs.cast.i8.i = ptrtoint ptr %2 to i64
  %sub.ptr.sub.i9.i = sub i64 %sub.ptr.lhs.cast.i7.i, %sub.ptr.rhs.cast.i8.i
  %cmp.i.i = icmp ult i64 %sub.ptr.sub.i9.i, %call.i.i
  br i1 %cmp.i.i, label %if.then.i.i, label %if.end.i.i

if.then.i.i:                                      ; preds = %cond.true.i.split.i
  %call3.i.i = tail call noundef nonnull align 8 dereferenceable(36) ptr @_ZN4llvh11raw_ostream5writeEPKcm(ptr noundef nonnull align 8 dereferenceable(36) %OS, ptr noundef nonnull %0, i64 noundef %call.i.i) #15
  br label %_ZN4llvh11raw_ostreamlsEPKc.exit

if.end.i.i:                                       ; preds = %cond.true.i.split.i
  %tobool.not.i.i = icmp eq i64 %call.i.i, 0
  br i1 %tobool.not.i.i, label %_ZN4llvh11raw_ostreamlsEPKc.exit, label %if.then4.i.i

if.then4.i.i:                                     ; preds = %if.end.i.i
  tail call void @llvm.memcpy.p0.p0.i64(ptr align 1 %2, ptr nonnull align 1 %0, i64 %call.i.i, i1 false)
  %3 = load ptr, ptr %OutBufCur.i6.i, align 8
  %add.ptr.i.i = getelementptr inbounds i8, ptr %3, i64 %call.i.i
  store ptr %add.ptr.i.i, ptr %OutBufCur.i6.i, align 8
  br label %_ZN4llvh11raw_ostreamlsEPKc.exit

_ZN4llvh11raw_ostreamlsEPKc.exit:                 ; preds = %entry, %if.then.i.i, %if.end.i.i, %if.then4.i.i
  %phi.call.i = phi ptr [ %call3.i.i, %if.then.i.i ], [ %OS, %if.then4.i.i ], [ %OS, %if.end.i.i ], [ %OS, %entry ]
  %OutBufEnd.i5.i3 = getelementptr inbounds i8, ptr %phi.call.i, i64 16
  %4 = load ptr, ptr %OutBufEnd.i5.i3, align 8
  %OutBufCur.i6.i4 = getelementptr inbounds i8, ptr %phi.call.i, i64 24
  %5 = load ptr, ptr %OutBufCur.i6.i4, align 8
  %cmp.i.i8 = icmp eq ptr %4, %5
  br i1 %cmp.i.i8, label %if.then.i.i14, label %if.then4.i.i11

if.then.i.i14:                                    ; preds = %_ZN4llvh11raw_ostreamlsEPKc.exit
  %call3.i.i15 = tail call noundef nonnull align 8 dereferenceable(36) ptr @_ZN4llvh11raw_ostream5writeEPKcm(ptr noundef nonnull align 8 dereferenceable(36) %phi.call.i, ptr noundef nonnull @.str, i64 noundef 1) #15
  br label %_ZN4llvh11raw_ostreamlsEPKc.exit16

if.then4.i.i11:                                   ; preds = %_ZN4llvh11raw_ostreamlsEPKc.exit
  store i8 10, ptr %5, align 1
  %6 = load ptr, ptr %OutBufCur.i6.i4, align 8
  %add.ptr.i.i12 = getelementptr inbounds i8, ptr %6, i64 1
  store ptr %add.ptr.i.i12, ptr %OutBufCur.i6.i4, align 8
  br label %_ZN4llvh11raw_ostreamlsEPKc.exit16

_ZN4llvh11raw_ostreamlsEPKc.exit16:               ; preds = %if.then.i.i14, %if.then4.i.i11
  ret void
}